target datalayout = "e-m:e-p270:32:32-p271:32:32-p272:64:64-i64:64-i128:128-f80:128-n8:16:32:64-S128"
target triple = "x86_64-pc-linux-gnu"

%class.G1MMUTracker = type <{ double, double, [64 x %class.G1MMUTrackerElem], i32, i32, i32, [4 x i8] }>
%class.G1MMUTrackerElem = type { double, double }

; Function Attrs: mustprogress nounwind uwtable
define linkonce_odr hidden noundef i32 @_ZNK12G1MMUTracker10trim_indexEi(ptr noundef nonnull align 8 dereferenceable(1052) %0, i32 noundef %1) #1 comdat align 2 {
  %3 = alloca ptr, align 8
  %4 = alloca i32, align 4
  store ptr %0, ptr %3, align 8
  store i32 %1, ptr %4, align 4
  %5 = load i32, ptr %4, align 4
  %6 = add nsw i32 %5, 64
  %7 = srem i32 %6, 64
  ret i32 %7
}

; Function Attrs: mustprogress nounwind uwtable
define linkonce_odr hidden void @_ZN16G1MMUTrackerElemC2Ev(ptr noundef nonnull align 8 dereferenceable(16) %0) unnamed_addr #1 comdat align 2 {
  %2 = alloca ptr, align 8
  store ptr %0, ptr %2, align 8
  %3 = load ptr, ptr %2, align 8
  %4 = getelementptr inbounds %class.G1MMUTrackerElem, ptr %3, i32 0, i32 0
  store double 0.000000e+00, ptr %4, align 8
  %5 = getelementptr inbounds %class.G1MMUTrackerElem, ptr %3, i32 0, i32 1
  store double 0.000000e+00, ptr %5, align 8
  ret void
}

; Function Attrs: mustprogress nounwind uwtable
define hidden void @_ZN12G1MMUTrackerC2Edd(ptr noundef nonnull align 8 dereferenceable(1052) %0, double noundef %1, double noundef %2) unnamed_addr #1 align 2 {
  %4 = alloca ptr, align 8
  %5 = alloca double, align 8
  %6 = alloca double, align 8
  store ptr %0, ptr %4, align 8
  store double %1, ptr %5, align 8
  store double %2, ptr %6, align 8
  %7 = load ptr, ptr %4, align 8
  %8 = getelementptr inbounds %class.G1MMUTracker, ptr %7, i32 0, i32 0
  %9 = load double, ptr %5, align 8
  store double %9, ptr %8, align 8
  %10 = getelementptr inbounds %class.G1MMUTracker, ptr %7, i32 0, i32 1
  %11 = load double, ptr %6, align 8
  store double %11, ptr %10, align 8
  %12 = getelementptr inbounds %class.G1MMUTracker, ptr %7, i32 0, i32 2
  %13 = getelementptr inbounds [64 x %class.G1MMUTrackerElem], ptr %12, i32 0, i32 0
  %14 = getelementptr inbounds %class.G1MMUTrackerElem, ptr %13, i64 64
  br label %15

15:                                               ; preds = %15, %3
  %16 = phi ptr [ %13, %3 ], [ %17, %15 ]
  call void @_ZN16G1MMUTrackerElemC2Ev(ptr noundef nonnull align 8 dereferenceable(16) %16)
  %17 = getelementptr inbounds %class.G1MMUTrackerElem, ptr %16, i64 1
  %18 = icmp eq ptr %17, %14
  br i1 %18, label %19, label %15

19:                                               ; preds = %15
  %20 = getelementptr inbounds %class.G1MMUTracker, ptr %7, i32 0, i32 3
  store i32 0, ptr %20, align 8
  %21 = getelementptr inbounds %class.G1MMUTracker, ptr %7, i32 0, i32 4
  %22 = getelementptr inbounds %class.G1MMUTracker, ptr %7, i32 0, i32 3
  %23 = load i32, ptr %22, align 8
  %24 = add nsw i32 %23, 1
  %25 = call noundef i32 @_ZNK12G1MMUTracker10trim_indexEi(ptr noundef nonnull align 8 dereferenceable(1052) %7, i32 noundef %24)
  store i32 %25, ptr %21, align 4
  %26 = getelementptr inbounds %class.G1MMUTracker, ptr %7, i32 0, i32 5
  store i32 0, ptr %26, align 8
  ret void
}