; Function Attrs: mustprogress nofree norecurse nosync nounwind willreturn memory(argmem: write) uwtable
define hidden void @_ZN12G1MMUTrackerC2Edd(ptr nocapture noundef nonnull writeonly align 8 dereferenceable(1052) %0, double noundef %1, double noundef %2) unnamed_addr #0 align 2 {
  store double %1, ptr %0, align 8
  %4 = getelementptr inbounds i8, ptr %0, i64 8
  store double %2, ptr %4, align 8
  %scevgep = getelementptr inbounds i8, ptr %0, i64 16
  %5 = getelementptr inbounds i8, ptr %0, i64 1044
  tail call void @llvm.memset.p0.i64(ptr noundef nonnull align 8 dereferenceable(1028) %scevgep, i8 0, i64 1028, i1 false)
  store i32 1, ptr %5, align 4
  %6 = getelementptr inbounds i8, ptr %0, i64 1048
  store i32 0, ptr %6, align 8
  ret void
}